Certificate:
    Data:
        Version: 3 (0x2)
        Serial Number: 268435457 (0x10000001)
    Signature Algorithm: sha256WithRSAEncryption
        Issuer: C=CN, ST=guangdong, O=xmlx, OU=xmlx, CN=xmlx/emailAddress=chengkunxf@xiaomalixing.com
        Validity
            Not Before: Jun 23 13:50:08 2018 GMT
            Not After : Jun 23 13:50:08 2019 GMT
        Subject: C=CN, ST=guangdong, O=xmlx, OU=xmlx, CN=xmlx/emailAddress=chengkunxf@xiaomalixing.com
        Subject Public Key Info:
            Public Key Algorithm: rsaEncryption
                Public-Key: (2048 bit)
                Modulus:
                    00:c9:45:c7:39:3d:4b:5d:ff:62:de:93:a7:d9:fe:
                    3a:7c:a8:9f:27:53:8b:4e:ba:6b:b3:91:f0:dd:69:
                    34:f0:40:1b:0a:a2:3f:5d:c3:f1:f8:ac:67:6f:da:
                    44:53:46:ce:31:d2:c7:08:87:bb:3b:20:0f:56:72:
                    4d:20:ec:a9:70:a9:06:21:c7:5f:47:3f:a1:40:be:
                    9a:68:7d:fe:2b:5e:59:b4:66:99:b7:91:9b:10:e4:
                    d7:46:30:68:15:05:5f:be:fe:ed:62:62:db:c3:6d:
                    63:c5:53:12:b5:59:14:88:d3:c5:86:85:dc:cf:ee:
                    10:53:fc:0c:03:a2:7e:e7:03:35:fa:31:b3:a2:d3:
                    ba:39:d0:24:16:f5:bd:f1:d5:bd:4b:3d:a3:68:f3:
                    3a:cc:67:fb:f9:c4:68:ab:7b:10:e6:4b:e7:44:6c:
                    6a:9c:a6:f2:df:3e:5a:ae:a5:8b:f7:df:b2:e0:f8:
                    6b:3b:ec:04:b6:7c:8a:3d:4f:3f:f3:ec:3e:b8:61:
                    12:42:72:8e:95:66:a9:e0:4e:69:bf:de:42:81:ec:
                    6a:65:da:49:49:bd:3e:82:53:5f:72:da:72:c0:06:
                    7d:75:d1:3b:20:8b:76:89:f7:c2:bd:3d:9a:a2:31:
                    65:42:9d:96:4d:65:bc:f5:e9:ff:87:ea:65:dc:6c:
                    51:81
                Exponent: 65537 (0x10001)
        X509v3 extensions:
            X509v3 Basic Constraints: 
                CA:FALSE
            Netscape Comment: 
                OpenSSL Generated Certificate
            X509v3 Subject Key Identifier: 
                62:88:0F:0C:3F:D4:E9:E6:23:3C:09:59:60:13:0C:A5:ED:21:0D:F1
            X509v3 Authority Key Identifier: 
                keyid:62:88:0F:0C:3F:D4:E9:E6:23:3C:09:59:60:13:0C:A5:ED:21:0D:F1

    Signature Algorithm: sha256WithRSAEncryption
         77:65:88:dc:2b:7a:e4:d4:b6:88:bd:7e:72:2f:4d:5a:10:74:
         5c:e7:b5:5b:5c:f8:2d:3e:fe:4e:fd:26:6a:61:16:f6:a2:f4:
         1f:e6:e1:6f:e3:b8:0d:e2:aa:42:b0:27:c6:87:60:f4:c2:7d:
         ee:e4:18:31:8a:96:26:39:97:91:50:e9:23:fa:37:0c:de:bc:
         75:fe:b9:ed:d2:87:93:87:b7:1a:2b:b9:7c:f1:b6:4d:ab:a0:
         ee:04:a9:60:a7:0d:d2:60:3c:d6:29:61:cc:fe:6b:44:c5:90:
         b6:64:b5:f7:93:4d:77:4a:e9:75:c5:e8:e1:a4:8a:d2:0b:cc:
         ec:4e:a3:8f:7f:42:f9:0a:46:a0:e4:b6:88:fb:69:23:22:73:
         22:ca:7b:38:ef:f4:ed:a7:c9:a7:fa:09:b9:ce:84:83:08:10:
         79:7d:a9:34:1f:30:06:6e:22:e5:77:35:bc:bf:46:ea:9e:be:
         a8:2a:cb:31:19:66:31:64:89:f1:29:23:20:91:59:13:90:aa:
         bb:79:7a:91:a5:09:5a:9d:df:61:31:b8:1b:70:4f:64:ef:10:
         7c:3c:1d:52:82:d7:4f:c8:a2:b8:34:29:e9:60:c0:14:63:ca:
         e9:ad:2e:6d:61:50:1e:0b:01:99:c7:c2:58:3e:3a:72:b9:91:
         47:de:5b:54
-----BEGIN CERTIFICATE-----
MIID7TCCAtWgAwIBAgIEEAAAATANBgkqhkiG9w0BAQsFADB6MQswCQYDVQQGEwJD
TjESMBAGA1UECAwJZ3Vhbmdkb25nMQ0wCwYDVQQKDAR4bWx4MQ0wCwYDVQQLDAR4
bWx4MQ0wCwYDVQQDDAR4bWx4MSowKAYJKoZIhvcNAQkBFhtjaGVuZ2t1bnhmQHhp
YW9tYWxpeGluZy5jb20wHhcNMTgwNjIzMTM1MDA4WhcNMTkwNjIzMTM1MDA4WjB6
MQswCQYDVQQGEwJDTjESMBAGA1UECAwJZ3Vhbmdkb25nMQ0wCwYDVQQKDAR4bWx4
MQ0wCwYDVQQLDAR4bWx4MQ0wCwYDVQQDDAR4bWx4MSowKAYJKoZIhvcNAQkBFhtj
aGVuZ2t1bnhmQHhpYW9tYWxpeGluZy5jb20wggEiMA0GCSqGSIb3DQEBAQUAA4IB
DwAwggEKAoIBAQDJRcc5PUtd/2Lek6fZ/jp8qJ8nU4tOumuzkfDdaTTwQBsKoj9d
w/H4rGdv2kRTRs4x0scIh7s7IA9Wck0g7KlwqQYhx19HP6FAvppoff4rXlm0Zpm3
kZsQ5NdGMGgVBV++/u1iYtvDbWPFUxK1WRSI08WGhdzP7hBT/AwDon7nAzX6MbOi
07o50CQW9b3x1b1LPaNo8zrMZ/v5xGirexDmS+dEbGqcpvLfPlqupYv337Lg+Gs7
7AS2fIo9Tz/z7D64YRJCco6VZqngTmm/3kKB7Gpl2klJvT6CU19y2nLABn110Tsg
i3aJ98K9PZqiMWVCnZZNZbz16f+H6mXcbFGBAgMBAAGjezB5MAkGA1UdEwQCMAAw
LAYJYIZIAYb4QgENBB8WHU9wZW5TU0wgR2VuZXJhdGVkIENlcnRpZmljYXRlMB0G
A1UdDgQWBBRiiA8MP9Tp5iM8CVlgEwyl7SEN8TAfBgNVHSMEGDAWgBRiiA8MP9Tp
5iM8CVlgEwyl7SEN8TANBgkqhkiG9w0BAQsFAAOCAQEAd2WI3Ct65NS2iL1+ci9N
WhB0XOe1W1z4LT7+Tv0mamEW9qL0H+bhb+O4DeKqQrAnxodg9MJ97uQYMYqWJjmX
kVDpI/o3DN68df657dKHk4e3Giu5fPG2Taug7gSpYKcN0mA81ilhzP5rRMWQtmS1
95NNd0rpdcXo4aSK0gvM7E6jj39C+QpGoOS2iPtpIyJzIsp7OO/07afJp/oJuc6E
gwgQeX2pNB8wBm4i5Xc1vL9G6p6+qCrLMRlmMWSJ8SkjIJFZE5Cqu3l6kaUJWp3f
YTG4G3BPZO8QfDwdUoLXT8iiuDQp6WDAFGPK6a0ubWFQHgsBmcfCWD46crmRR95b
VA==
-----END CERTIFICATE-----
